; Function Attrs: mustprogress uwtable
define internal fastcc void @_ZN12_GLOBAL__N_19GetEnvVarB5cxx11EPKc(ptr noalias align 8 %agg.result) unnamed_addr #3 personality ptr @__gxx_personality_v0 {
entry:
  %ref.tmp = alloca %"class.std::allocator", align 1
  %ref.tmp1 = alloca %"class.std::allocator", align 1
  %call = tail call ptr @getenv(ptr noundef nonnull @.str.12) #13
  %cmp = icmp eq ptr %call, null
  br i1 %cmp, label %if.then, label %if.end

if.then:                                          ; preds = %entry
  call void @_ZNSaIcEC1Ev(ptr noundef nonnull align 1 dereferenceable(1) %ref.tmp) #13
  %call.i3 = invoke noundef ptr @_ZNSt7__cxx1112basic_stringIcSt11char_traitsIcESaIcEE13_M_local_dataEv(ptr noundef nonnull align 8 dereferenceable(32) %agg.result)
          to label %call.i.noexc unwind label %lpad

call.i.noexc:                                     ; preds = %if.then
  invoke void @_ZNSt7__cxx1112basic_stringIcSt11char_traitsIcESaIcEE12_Alloc_hiderC1EPcRKS3_(ptr noundef nonnull align 8 dereferenceable(8) %agg.result, ptr noundef %call.i3, ptr noundef nonnull align 1 dereferenceable(1) %ref.tmp)
          to label %.noexc unwind label %lpad

.noexc:                                           ; preds = %call.i.noexc
  invoke void @_ZNSt7__cxx1112basic_stringIcSt11char_traitsIcESaIcEE12_M_constructIPKcEEvT_S8_St20forward_iterator_tag(ptr noundef nonnull align 8 dereferenceable(32) %agg.result, ptr noundef nonnull @.str.13, ptr noundef nonnull getelementptr inbounds ([6 x i8], ptr @.str.13, i64 0, i64 5))
          to label %return unwind label %lpad.i

lpad.i:                                           ; preds = %.noexc
  %0 = landingpad { ptr, i32 }
          cleanup
  call void @_ZNSaIcED2Ev(ptr noundef nonnull align 1 dereferenceable(1) %agg.result) #13
  br label %eh.resume

lpad:                                             ; preds = %call.i.noexc, %if.then
  %1 = landingpad { ptr, i32 }
          cleanup
  br label %eh.resume

if.end:                                           ; preds = %entry
  call void @_ZNSaIcEC1Ev(ptr noundef nonnull align 1 dereferenceable(1) %ref.tmp1) #13
  %call.i8 = invoke noundef ptr @_ZNSt7__cxx1112basic_stringIcSt11char_traitsIcESaIcEE13_M_local_dataEv(ptr noundef nonnull align 8 dereferenceable(32) %agg.result)
          to label %call.i.noexc7 unwind label %lpad2

call.i.noexc7:                                    ; preds = %if.end
  invoke void @_ZNSt7__cxx1112basic_stringIcSt11char_traitsIcESaIcEE12_Alloc_hiderC1EPcRKS3_(ptr noundef nonnull align 8 dereferenceable(8) %agg.result, ptr noundef %call.i8, ptr noundef nonnull align 1 dereferenceable(1) %ref.tmp1)
          to label %if.end.i unwind label %lpad2

lpad.i6:                                          ; preds = %if.end.i
  %2 = landingpad { ptr, i32 }
          cleanup
  call void @_ZNSaIcED2Ev(ptr noundef nonnull align 1 dereferenceable(1) %agg.result) #13
  br label %eh.resume

if.end.i:                                         ; preds = %call.i.noexc7
  %call.i.i4 = call noundef i64 @strlen(ptr noundef nonnull dereferenceable(1) %call) #13
  %add.ptr.i5 = getelementptr inbounds i8, ptr %call, i64 %call.i.i4
  invoke void @_ZNSt7__cxx1112basic_stringIcSt11char_traitsIcESaIcEE12_M_constructIPKcEEvT_S8_St20forward_iterator_tag(ptr noundef nonnull align 8 dereferenceable(32) %agg.result, ptr noundef nonnull %call, ptr noundef nonnull %add.ptr.i5)
          to label %return unwind label %lpad.i6

lpad2:                                            ; preds = %call.i.noexc7, %if.end
  %3 = landingpad { ptr, i32 }
          cleanup
  br label %eh.resume

return:                                           ; preds = %if.end.i, %.noexc
  %ref.tmp1.sink = phi ptr [ %ref.tmp, %.noexc ], [ %ref.tmp1, %if.end.i ]
  call void @_ZNSaIcED1Ev(ptr noundef nonnull align 1 dereferenceable(1) %ref.tmp1.sink) #13
  ret void

eh.resume:                                        ; preds = %lpad2, %lpad.i6, %lpad, %lpad.i
  %ref.tmp1.sink1 = phi ptr [ %ref.tmp, %lpad.i ], [ %ref.tmp, %lpad ], [ %ref.tmp1, %lpad.i6 ], [ %ref.tmp1, %lpad2 ]
  %.pn = phi { ptr, i32 } [ %0, %lpad.i ], [ %1, %lpad ], [ %2, %lpad.i6 ], [ %3, %lpad2 ]
  call void @_ZNSaIcED1Ev(ptr noundef nonnull align 1 dereferenceable(1) %ref.tmp1.sink1) #13
  resume { ptr, i32 } %.pn
}